; ModuleID = 'source-C-CXX/52/608.c'
source_filename = "source-C-CXX/52/608.c"
target datalayout = "e-m:e-p270:32:32-p271:32:32-p272:64:64-i64:64-f80:128-n8:16:32:64-S128"
target triple = "x86_64-pc-linux-gnu"

@.str = private unnamed_addr constant [4 x i8] c"%d\0A\00", align 1
@.str.1 = private unnamed_addr constant [3 x i8] c"%d\00", align 1
@.str.2 = private unnamed_addr constant [4 x i8] c"%d,\00", align 1

; Function Attrs: nofree nounwind sspstrong uwtable
define dso_local void @main() local_unnamed_addr #0 {
  %1 = alloca i32, align 4
  %2 = alloca [300 x i32], align 16
  %3 = alloca [300 x i32], align 16
  %4 = bitcast i32* %1 to i8*
  call void @llvm.lifetime.start.p0i8(i64 4, i8* nonnull %4) #3
  %5 = bitcast [300 x i32]* %2 to i8*
  call void @llvm.lifetime.start.p0i8(i64 1200, i8* nonnull %5) #3
  %6 = bitcast [300 x i32]* %3 to i8*
  call void @llvm.lifetime.start.p0i8(i64 1200, i8* nonnull %6) #3
  %7 = call i32 (i8*, ...) @__isoc99_scanf(i8* getelementptr inbounds ([4 x i8], [4 x i8]* @.str, i64 0, i64 0), i32* nonnull %1)
  %8 = load i32, i32* %1, align 4, !tbaa !5
  %9 = icmp sgt i32 %8, 0
  br i1 %9, label %10, label %21

10:                                               ; preds = %0, %10
  %11 = phi i64 [ %14, %10 ], [ 0, %0 ]
  %12 = getelementptr inbounds [300 x i32], [300 x i32]* %2, i64 0, i64 %11
  %13 = call i32 (i8*, ...) @__isoc99_scanf(i8* getelementptr inbounds ([3 x i8], [3 x i8]* @.str.1, i64 0, i64 0), i32* nonnull %12)
  %14 = add nuw nsw i64 %11, 1
  %15 = load i32, i32* %1, align 4, !tbaa !5
  %16 = sext i32 %15 to i64
  %17 = icmp slt i64 %14, %16
  br i1 %17, label %10, label %18, !llvm.loop !9

18:                                               ; preds = %10
  %19 = getelementptr inbounds [300 x i32], [300 x i32]* %2, i64 0, i64 0
  %20 = load i32, i32* %19, align 16, !tbaa !5
  br label %21

21:                                               ; preds = %18, %0
  %22 = phi i32 [ %20, %18 ], [ undef, %0 ]
  %23 = call i32 (i8*, ...) @printf(i8* nonnull dereferenceable(1) getelementptr inbounds ([4 x i8], [4 x i8]* @.str.2, i64 0, i64 0), i32 %22)
  %24 = load i32, i32* %1, align 4, !tbaa !5
  %25 = icmp sgt i32 %24, 1
  br i1 %25, label %26, label %61

26:                                               ; preds = %21
  %27 = zext i32 %24 to i64
  br label %28

28:                                               ; preds = %26, %50
  %29 = phi i64 [ 1, %26 ], [ %52, %50 ]
  %30 = phi i32 [ 0, %26 ], [ %51, %50 ]
  %31 = getelementptr inbounds [300 x i32], [300 x i32]* %2, i64 0, i64 %29
  %32 = load i32, i32* %31, align 4, !tbaa !5
  br label %40

33:                                               ; preds = %50
  %34 = add i32 %51, -1
  %35 = icmp sgt i32 %51, 1
  br i1 %35, label %36, label %61

36:                                               ; preds = %33
  %37 = zext i32 %34 to i64
  br label %54

38:                                               ; preds = %40
  %39 = icmp eq i64 %45, %29
  br i1 %39, label %46, label %40, !llvm.loop !11

40:                                               ; preds = %28, %38
  %41 = phi i64 [ 0, %28 ], [ %45, %38 ]
  %42 = getelementptr inbounds [300 x i32], [300 x i32]* %2, i64 0, i64 %41
  %43 = load i32, i32* %42, align 4, !tbaa !5
  %44 = icmp eq i32 %32, %43
  %45 = add nuw nsw i64 %41, 1
  br i1 %44, label %50, label %38

46:                                               ; preds = %38
  %47 = sext i32 %30 to i64
  %48 = getelementptr inbounds [300 x i32], [300 x i32]* %3, i64 0, i64 %47
  store i32 %32, i32* %48, align 4, !tbaa !5
  %49 = add nsw i32 %30, 1
  br label %50

50:                                               ; preds = %40, %46
  %51 = phi i32 [ %49, %46 ], [ %30, %40 ]
  %52 = add nuw nsw i64 %29, 1
  %53 = icmp eq i64 %52, %27
  br i1 %53, label %33, label %28, !llvm.loop !12

54:                                               ; preds = %36, %54
  %55 = phi i64 [ 0, %36 ], [ %59, %54 ]
  %56 = getelementptr inbounds [300 x i32], [300 x i32]* %3, i64 0, i64 %55
  %57 = load i32, i32* %56, align 4, !tbaa !5
  %58 = call i32 (i8*, ...) @printf(i8* nonnull dereferenceable(1) getelementptr inbounds ([4 x i8], [4 x i8]* @.str.2, i64 0, i64 0), i32 %57)
  %59 = add nuw nsw i64 %55, 1
  %60 = icmp eq i64 %59, %37
  br i1 %60, label %61, label %54, !llvm.loop !13

61:                                               ; preds = %54, %21, %33
  %62 = phi i32 [ %34, %33 ], [ -1, %21 ], [ %34, %54 ]
  %63 = sext i32 %62 to i64
  %64 = getelementptr inbounds [300 x i32], [300 x i32]* %3, i64 0, i64 %63
  %65 = load i32, i32* %64, align 4, !tbaa !5
  %66 = call i32 (i8*, ...) @printf(i8* nonnull dereferenceable(1) getelementptr inbounds ([3 x i8], [3 x i8]* @.str.1, i64 0, i64 0), i32 %65)
  call void @llvm.lifetime.end.p0i8(i64 1200, i8* nonnull %6) #3
  call void @llvm.lifetime.end.p0i8(i64 1200, i8* nonnull %5) #3
  call void @llvm.lifetime.end.p0i8(i64 4, i8* nonnull %4) #3
  ret void
}

; Function Attrs: argmemonly mustprogress nofree nosync nounwind willreturn
declare void @llvm.lifetime.start.p0i8(i64 immarg, i8* nocapture) #1

; Function Attrs: nofree nounwind
declare noundef i32 @__isoc99_scanf(i8* nocapture noundef readonly, ...) local_unnamed_addr #2

; Function Attrs: nofree nounwind
declare noundef i32 @printf(i8* nocapture noundef readonly, ...) local_unnamed_addr #2

; Function Attrs: argmemonly mustprogress nofree nosync nounwind willreturn
declare void @llvm.lifetime.end.p0i8(i64 immarg, i8* nocapture) #1


!llvm.module.flags = !{!0, !1, !2, !3}
!llvm.ident = !{!4}

!0 = !{i32 1, !"wchar_size", i32 4}
!1 = !{i32 7, !"PIC Level", i32 2}
!2 = !{i32 7, !"PIE Level", i32 2}
!3 = !{i32 7, !"uwtable", i32 1}
!4 = !{!"clang version 13.0.0"}
!5 = !{!6, !6, i64 0}
!6 = !{!"int", !7, i64 0}
!7 = !{!"omnipotent char", !8, i64 0}
!8 = !{!"Simple C/C++ TBAA"}
!9 = distinct !{!9, !10}
!10 = !{!"llvm.loop.mustprogress"}
!11 = distinct !{!11, !10}
!12 = distinct !{!12, !10}
!13 = distinct !{!13, !10}
